target datalayout = "e-m:e-p270:32:32-p271:32:32-p272:64:64-i64:64-i128:128-f80:128-n8:16:32:64-S128"
target triple = "x86_64-pc-linux-gnu"

%struct.pmix_globals_t = type { i32, %struct.pmix_proc, %struct.pmix_value, %struct.pmix_value, ptr, i32, i32, ptr, i32, i32, i32, i32, i32, ptr, ptr, i32, %struct.pmix_events_t, i8, i8, %struct.timeval, %struct.pmix_list_t, %struct.pmix_pointer_array_t, i32, i32, %struct.pmix_hotel_t, i8, %struct.pmix_list_t, i8, i8, i8, i64, %struct.pmix_list_t, %struct.pmix_topology_t, %struct.pmix_cpuset_t, i8, i8, %struct.pmix_iof_flags_t, %struct.pmix_keyindex_t }
%struct.pmix_proc = type { [256 x i8], i32 }
%struct.pmix_value = type { i16, %union.anon.8 }
%union.anon.8 = type { %struct.pmix_envar_t }
%struct.pmix_envar_t = type { ptr, ptr, i8 }
%struct.pmix_events_t = type { %struct.pmix_object_t, i64, ptr, ptr, %struct.pmix_list_t, %struct.pmix_list_t, %struct.pmix_list_t, %struct.pmix_list_t }
%struct.pmix_object_t = type { %union.pthread_mutex_t, ptr, i32, %struct.pmix_tma }
%union.pthread_mutex_t = type { %struct.__pthread_mutex_s }
%struct.__pthread_mutex_s = type { i32, i32, i32, i32, i32, i16, i16, %struct.__pthread_internal_list }
%struct.__pthread_internal_list = type { ptr, ptr }
%struct.pmix_tma = type { ptr, ptr, ptr, ptr, ptr, ptr, ptr, ptr }
%struct.timeval = type { i64, i64 }
%struct.pmix_pointer_array_t = type { %struct.pmix_object_t, i32, i32, i32, i32, i32, ptr, ptr }
%struct.pmix_hotel_t = type { %struct.pmix_object_t, i32, ptr, %struct.timeval, ptr, ptr, ptr, ptr, i32 }
%struct.pmix_list_t = type { %struct.pmix_object_t, %struct.pmix_list_item_t, i64 }
%struct.pmix_list_item_t = type { %struct.pmix_object_t, ptr, ptr, i32 }
%struct.pmix_topology_t = type { ptr, ptr }
%struct.pmix_cpuset_t = type { ptr, ptr }
%struct.pmix_iof_flags_t = type { i8, i8, i8, i8, i8, i8, i8, ptr, ptr, i8, i8, i8, i8, i8, i8 }
%struct.pmix_keyindex_t = type { %struct.pmix_object_t, ptr, i32 }
%struct.pmix_mca_base_framework_t = type { ptr, ptr, ptr, ptr, ptr, ptr, i32, i32, ptr, ptr, i32, i32, %struct.pmix_list_t, %struct.pmix_list_t }
%struct.pmix_output_desc_t = type { i8, i8, i32, i8, i32, ptr, ptr, i32, ptr, i32, i8, i8, i8, i8, ptr, i32, i32 }
%struct.pmix_pfexec_globals_t = type { ptr, i8, %struct.pmix_list_t, i32, i64, i8 }
%struct.__sigset_t = type { [16 x i64] }
%struct.pmix_pfexec_fork_caddy_t = type { %struct.pmix_object_t, %struct.event, ptr, ptr, i64, ptr, i64, i16, %struct.pmix_iof_flags_t, ptr, ptr, ptr }
%struct.event = type { %struct.event_callback, %union.anon.1, i32, ptr, %union.anon.3, i16, i16, %struct.timeval }
%struct.event_callback = type { %struct.anon.0, i16, i8, i8, %union.anon, ptr }
%struct.anon.0 = type { ptr, ptr }
%union.anon = type { ptr }
%union.anon.1 = type { %struct.anon.2 }
%struct.anon.2 = type { ptr, ptr }
%union.anon.3 = type { %struct.anon.4 }
%struct.anon.4 = type { %struct.anon.5, %struct.timeval }
%struct.anon.5 = type { ptr, ptr }

@pmix_globals = external global %struct.pmix_globals_t, align 8
@pmix_pfexec_base_framework = external global %struct.pmix_mca_base_framework_t, align 8
@pmix_output_info = external global [0 x %struct.pmix_output_desc_t], align 8
@.str.3 = private unnamed_addr constant [35 x i8] c"%s pfexec:linux spawning child job\00", align 1
@pmix_pfexec_globals = external global %struct.pmix_pfexec_globals_t, align 8

; Function Attrs: inlinehint nounwind uwtable
define internal void @pmix_atomic_wmb() #3 {
  fence release
  ret void
}

; Function Attrs: nounwind uwtable
define internal i32 @spawn_job(ptr noundef %0) #0 {
  %2 = alloca i32, align 4
  %3 = alloca ptr, align 8
  %4 = alloca %struct.__sigset_t, align 8
  %5 = alloca i32, align 4
  store ptr %0, ptr %3, align 8, !tbaa !3
  call void @llvm.lifetime.start.p0(i64 128, ptr %4) #14
  %6 = load i32, ptr getelementptr inbounds nuw (%struct.pmix_mca_base_framework_t, ptr @pmix_pfexec_base_framework, i32 0, i32 11), align 4, !tbaa !7
  %7 = icmp sge i32 %6, 0
  br i1 %7, label %8, label %21

8:                                                ; preds = %1
  %9 = load i32, ptr getelementptr inbounds nuw (%struct.pmix_mca_base_framework_t, ptr @pmix_pfexec_base_framework, i32 0, i32 11), align 4, !tbaa !7
  %10 = icmp slt i32 %9, 64
  br i1 %10, label %11, label %21

11:                                               ; preds = %8
  %12 = load i32, ptr getelementptr inbounds nuw (%struct.pmix_mca_base_framework_t, ptr @pmix_pfexec_base_framework, i32 0, i32 11), align 4, !tbaa !7
  %13 = sext i32 %12 to i64
  %14 = getelementptr inbounds [0 x %struct.pmix_output_desc_t], ptr @pmix_output_info, i64 0, i64 %13
  %15 = getelementptr inbounds nuw %struct.pmix_output_desc_t, ptr %14, i32 0, i32 2
  %16 = load i32, ptr %15, align 4, !tbaa !19
  %17 = icmp sge i32 %16, 5
  br i1 %17, label %18, label %21

18:                                               ; preds = %11
  %19 = load i32, ptr getelementptr inbounds nuw (%struct.pmix_mca_base_framework_t, ptr @pmix_pfexec_base_framework, i32 0, i32 11), align 4, !tbaa !7
  %20 = call ptr @pmix_util_print_name_args(ptr noundef getelementptr inbounds nuw (%struct.pmix_globals_t, ptr @pmix_globals, i32 0, i32 1))
  call void (i32, ptr, ...) @pmix_output(i32 noundef %19, ptr noundef @.str.3, ptr noundef %20)
  br label %21

21:                                               ; preds = %18, %11, %8, %1
  %22 = load ptr, ptr @pmix_pfexec_globals, align 8, !tbaa !22
  %23 = icmp eq ptr null, %22
  br i1 %23, label %24, label %44

24:                                               ; preds = %21
  %25 = call i32 @sigemptyset(ptr noundef %4) #14
  %26 = icmp ne i32 0, %25
  br i1 %26, label %27, label %28

27:                                               ; preds = %24
  store i32 -1, ptr %2, align 4
  store i32 1, ptr %5, align 4
  br label %57

28:                                               ; preds = %24
  %29 = call i32 @sigaddset(ptr noundef %4, i32 noundef 17) #14
  %30 = icmp ne i32 0, %29
  br i1 %30, label %31, label %32

31:                                               ; preds = %28
  store i32 -1, ptr %2, align 4
  store i32 1, ptr %5, align 4
  br label %57

32:                                               ; preds = %28
  %33 = call i32 @sigprocmask(i32 noundef 1, ptr noundef %4, ptr noundef null) #14
  %34 = icmp ne i32 0, %33
  br i1 %34, label %35, label %36

35:                                               ; preds = %32
  store i32 -47, ptr %2, align 4
  store i32 1, ptr %5, align 4
  br label %57

36:                                               ; preds = %32
  %37 = call noalias ptr @malloc(i64 noundef 128) #15
  store ptr %37, ptr @pmix_pfexec_globals, align 8, !tbaa !22
  %38 = load ptr, ptr @pmix_pfexec_globals, align 8, !tbaa !22
  %39 = load ptr, ptr getelementptr inbounds nuw (%struct.pmix_globals_t, ptr @pmix_globals, i32 0, i32 14), align 8, !tbaa !25
  %40 = load ptr, ptr @pmix_pfexec_globals, align 8, !tbaa !22
  %41 = call i32 @pmix_event_assign(ptr noundef %38, ptr noundef %39, i32 noundef 17, i16 noundef signext 24, ptr noundef @wait_signal_callback, ptr noundef %40)
  store i8 1, ptr getelementptr inbounds nuw (%struct.pmix_pfexec_globals_t, ptr @pmix_pfexec_globals, i32 0, i32 1), align 8, !tbaa !42
  %42 = load ptr, ptr @pmix_pfexec_globals, align 8, !tbaa !22
  %43 = call i32 @event_add(ptr noundef %42, ptr noundef null)
  br label %44

44:                                               ; preds = %36, %21
  %45 = load ptr, ptr %3, align 8, !tbaa !3
  %46 = getelementptr inbounds nuw %struct.pmix_pfexec_fork_caddy_t, ptr %45, i32 0, i32 9
  store ptr @fork_proc, ptr %46, align 8, !tbaa !43
  br label %47

47:                                               ; preds = %44
  %48 = load ptr, ptr %3, align 8, !tbaa !3
  %49 = getelementptr inbounds nuw %struct.pmix_pfexec_fork_caddy_t, ptr %48, i32 0, i32 1
  %50 = load ptr, ptr getelementptr inbounds nuw (%struct.pmix_globals_t, ptr @pmix_globals, i32 0, i32 13), align 8, !tbaa !52
  %51 = load ptr, ptr %3, align 8, !tbaa !3
  %52 = call i32 @pmix_event_assign(ptr noundef %49, ptr noundef %50, i32 noundef -1, i16 noundef signext 4, ptr noundef @pmix_pfexec_base_spawn_proc, ptr noundef %51)
  call void @pmix_atomic_wmb()
  %53 = load ptr, ptr %3, align 8, !tbaa !3
  %54 = getelementptr inbounds nuw %struct.pmix_pfexec_fork_caddy_t, ptr %53, i32 0, i32 1
  call void @event_active(ptr noundef %54, i32 noundef 4, i16 noundef signext 1)
  br label %55

55:                                               ; preds = %47
  br label %56

56:                                               ; preds = %55
  store i32 0, ptr %2, align 4
  store i32 1, ptr %5, align 4
  br label %57

57:                                               ; preds = %56, %35, %31, %27
  call void @llvm.lifetime.end.p0(i64 128, ptr %4) #14
  %58 = load i32, ptr %2, align 4
  ret i32 %58
}