; Function Attrs: nounwind uwtable
define internal range(i32 -47, 1) i32 @spawn_job(ptr noundef %0) #0 {
  %2 = alloca %struct.__sigset_t, align 8
  call void @llvm.lifetime.start.p0(i64 128, ptr nonnull %2) #18
  %3 = load i32, ptr getelementptr inbounds nuw (i8, ptr @pmix_pfexec_base_framework, i64 76), align 4, !tbaa !3
  %or.cond = icmp ult i32 %3, 64
  br i1 %or.cond, label %4, label %11

4:                                                ; preds = %1
  %5 = zext nneg i32 %3 to i64
  %6 = getelementptr inbounds nuw [0 x %struct.pmix_output_desc_t], ptr @pmix_output_info, i64 0, i64 %5, i32 2
  %7 = load i32, ptr %6, align 4, !tbaa !18
  %8 = icmp sgt i32 %7, 4
  br i1 %8, label %9, label %11

9:                                                ; preds = %4
  %10 = tail call ptr @pmix_util_print_name_args(ptr noundef nonnull getelementptr inbounds nuw (i8, ptr @pmix_globals, i64 4)) #18
  tail call void (i32, ptr, ...) @pmix_output(i32 noundef %3, ptr noundef nonnull @.str.3, ptr noundef %10) #18
  br label %11

11:                                               ; preds = %9, %4, %1
  %12 = load ptr, ptr @pmix_pfexec_globals, align 8, !tbaa !21
  %13 = icmp eq ptr %12, null
  br i1 %13, label %14, label %26

14:                                               ; preds = %11
  %15 = call i32 @sigemptyset(ptr noundef nonnull %2) #18
  %.not = icmp eq i32 %15, 0
  br i1 %.not, label %16, label %31

16:                                               ; preds = %14
  %17 = call i32 @sigaddset(ptr noundef nonnull %2, i32 noundef 17) #18
  %.not6 = icmp eq i32 %17, 0
  br i1 %.not6, label %18, label %31

18:                                               ; preds = %16
  %19 = call i32 @sigprocmask(i32 noundef 1, ptr noundef nonnull %2, ptr noundef null) #18
  %.not7 = icmp eq i32 %19, 0
  br i1 %.not7, label %20, label %31

20:                                               ; preds = %18
  %21 = call noalias dereferenceable_or_null(128) ptr @malloc(i64 noundef 128) #19
  store ptr %21, ptr @pmix_pfexec_globals, align 8, !tbaa !21
  %22 = load ptr, ptr getelementptr inbounds nuw (i8, ptr @pmix_globals, i64 384), align 8, !tbaa !24
  %23 = call i32 @pmix_event_assign(ptr noundef %21, ptr noundef %22, i32 noundef 17, i16 noundef signext 24, ptr noundef nonnull @wait_signal_callback, ptr noundef %21) #18
  store i8 1, ptr getelementptr inbounds nuw (i8, ptr @pmix_pfexec_globals, i64 8), align 8, !tbaa !41
  %24 = load ptr, ptr @pmix_pfexec_globals, align 8, !tbaa !21
  %25 = call i32 @event_add(ptr noundef %24, ptr noundef null) #18
  br label %26

26:                                               ; preds = %20, %11
  %27 = getelementptr inbounds nuw i8, ptr %0, i64 328
  store ptr @fork_proc, ptr %27, align 8, !tbaa !42
  %28 = getelementptr inbounds nuw i8, ptr %0, i64 120
  %29 = load ptr, ptr getelementptr inbounds nuw (i8, ptr @pmix_globals, i64 376), align 8, !tbaa !51
  %30 = call i32 @pmix_event_assign(ptr noundef nonnull %28, ptr noundef %29, i32 noundef -1, i16 noundef signext 4, ptr noundef nonnull @pmix_pfexec_base_spawn_proc, ptr noundef %0) #18
  fence release
  call void @event_active(ptr noundef nonnull %28, i32 noundef 4, i16 noundef signext 1) #18
  br label %31

31:                                               ; preds = %18, %16, %14, %26
  %.0 = phi i32 [ 0, %26 ], [ -1, %14 ], [ -1, %16 ], [ -47, %18 ]
  call void @llvm.lifetime.end.p0(i64 128, ptr nonnull %2) #18
  ret i32 %.0
}